target datalayout = "e-m:e-p270:32:32-p271:32:32-p272:64:64-i64:64-i128:128-f80:128-n8:16:32:64-S128"
target triple = "x86_64-unknown-linux-gnu"

%struct.QemuTextConsole = type { %struct.QemuConsole, i32, i32, i32, i32, i32, i32, i32, i32, ptr, [2 x i32], [2 x i32], i32, i32, i32, i32, i32, i32, ptr, %struct.Fifo8 }
%struct.QemuConsole = type { %struct.Object, i32, ptr, ptr, %struct.DisplayScanout, i32, ptr, i32, ptr, i32, %struct.QemuUIInfo, ptr, ptr, ptr, %struct.CoQueue, %union.anon.0 }
%struct.Object = type { ptr, ptr, ptr, i32, ptr }
%struct.DisplayScanout = type { i32, %union.anon }
%union.anon = type { %struct.ScanoutTexture }
%struct.ScanoutTexture = type { i32, i8, i32, i32, i32, i32, i32, i32, ptr }
%struct.QemuUIInfo = type { i16, i16, i32, i32, i32, i32, i32 }
%struct.CoQueue = type { %struct.anon }
%struct.anon = type { ptr, ptr }
%union.anon.0 = type { %struct.QTailQLink }
%struct.QTailQLink = type { ptr, ptr }
%struct.Fifo8 = type { ptr, i32, i32, i32 }
%struct.TextCell = type <{ i8, %struct.TextAttributes }>
%struct.TextAttributes = type { i16 }

@.str.2 = private unnamed_addr constant [18 x i8] c"qemu-text-console\00", align 1
@.str.3 = private unnamed_addr constant [13 x i8] c"qemu-console\00", align 1
@.str.4 = private unnamed_addr constant [99 x i8] c"/home/dtcxzyw/WorkSpace/Projects/compilers/llvm-opt-benchmark/bench/qemu/qemu/include/ui/console.h\00", align 1
@__func__.QEMU_TEXT_CONSOLE = private unnamed_addr constant [18 x i8] c"QEMU_TEXT_CONSOLE\00", align 1
@__func__.QEMU_CONSOLE = private unnamed_addr constant [13 x i8] c"QEMU_CONSOLE\00", align 1

; Function Attrs: nounwind sspstrong uwtable
define internal ptr @QEMU_CONSOLE(ptr noundef %obj) #0 {
entry:
  %obj.addr = alloca ptr, align 8
  store ptr %obj, ptr %obj.addr, align 8
  %0 = load ptr, ptr %obj.addr, align 8
  %call = call ptr @object_dynamic_cast_assert(ptr noundef %0, ptr noundef @.str.3, ptr noundef @.str.4, i32 noundef 12, ptr noundef @__func__.QEMU_CONSOLE)
  ret ptr %call
}

; Function Attrs: nounwind sspstrong uwtable
define internal void @console_write_ch(ptr noundef %dest, i32 noundef %ch) #0 {
entry:
  %dest.addr = alloca ptr, align 8
  %ch.addr = alloca i32, align 4
  store ptr %dest, ptr %dest.addr, align 8
  store i32 %ch, ptr %ch.addr, align 4
  %0 = load i32, ptr %ch.addr, align 4
  %1 = load ptr, ptr %dest.addr, align 8
  store i32 %0, ptr %1, align 4
  ret void
}

; Function Attrs: nounwind sspstrong uwtable
define internal ptr @QEMU_TEXT_CONSOLE(ptr noundef %obj) #0 {
entry:
  %obj.addr = alloca ptr, align 8
  store ptr %obj, ptr %obj.addr, align 8
  %0 = load ptr, ptr %obj.addr, align 8
  %call = call ptr @object_dynamic_cast_assert(ptr noundef %0, ptr noundef @.str.2, ptr noundef @.str.4, i32 noundef 18, ptr noundef @__func__.QEMU_TEXT_CONSOLE)
  ret ptr %call
}

; Function Attrs: nounwind sspstrong uwtable
define internal void @text_console_update(ptr noundef %opaque, ptr noundef %chardata) #0 {
entry:
  %opaque.addr = alloca ptr, align 8
  %chardata.addr = alloca ptr, align 8
  %s = alloca ptr, align 8
  %i = alloca i32, align 4
  %j = alloca i32, align 4
  %src = alloca i32, align 4
  store ptr %opaque, ptr %opaque.addr, align 8
  store ptr %chardata, ptr %chardata.addr, align 8
  %0 = load ptr, ptr %opaque.addr, align 8
  %call = call ptr @QEMU_TEXT_CONSOLE(ptr noundef %0)
  store ptr %call, ptr %s, align 8
  %1 = load ptr, ptr %s, align 8
  %text_x = getelementptr inbounds %struct.QemuTextConsole, ptr %1, i32 0, i32 10
  %arrayidx = getelementptr [2 x i32], ptr %text_x, i64 0, i64 0
  %2 = load i32, ptr %arrayidx, align 8
  %3 = load ptr, ptr %s, align 8
  %text_x1 = getelementptr inbounds %struct.QemuTextConsole, ptr %3, i32 0, i32 10
  %arrayidx2 = getelementptr [2 x i32], ptr %text_x1, i64 0, i64 1
  %4 = load i32, ptr %arrayidx2, align 4
  %cmp = icmp sle i32 %2, %4
  br i1 %cmp, label %if.then, label %if.end

if.then:                                          ; preds = %entry
  %5 = load ptr, ptr %s, align 8
  %y_base = getelementptr inbounds %struct.QemuTextConsole, ptr %5, i32 0, i32 8
  %6 = load i32, ptr %y_base, align 4
  %7 = load ptr, ptr %s, align 8
  %text_y = getelementptr inbounds %struct.QemuTextConsole, ptr %7, i32 0, i32 11
  %arrayidx3 = getelementptr [2 x i32], ptr %text_y, i64 0, i64 0
  %8 = load i32, ptr %arrayidx3, align 8
  %add = add i32 %6, %8
  %9 = load ptr, ptr %s, align 8
  %width = getelementptr inbounds %struct.QemuTextConsole, ptr %9, i32 0, i32 1
  %10 = load i32, ptr %width, align 8
  %mul = mul i32 %add, %10
  store i32 %mul, ptr %src, align 4
  %11 = load ptr, ptr %s, align 8
  %text_y4 = getelementptr inbounds %struct.QemuTextConsole, ptr %11, i32 0, i32 11
  %arrayidx5 = getelementptr [2 x i32], ptr %text_y4, i64 0, i64 0
  %12 = load i32, ptr %arrayidx5, align 8
  %13 = load ptr, ptr %s, align 8
  %width6 = getelementptr inbounds %struct.QemuTextConsole, ptr %13, i32 0, i32 1
  %14 = load i32, ptr %width6, align 8
  %mul7 = mul i32 %12, %14
  %15 = load ptr, ptr %chardata.addr, align 8
  %idx.ext = sext i32 %mul7 to i64
  %add.ptr = getelementptr i32, ptr %15, i64 %idx.ext
  store ptr %add.ptr, ptr %chardata.addr, align 8
  %16 = load ptr, ptr %s, align 8
  %text_y8 = getelementptr inbounds %struct.QemuTextConsole, ptr %16, i32 0, i32 11
  %arrayidx9 = getelementptr [2 x i32], ptr %text_y8, i64 0, i64 0
  %17 = load i32, ptr %arrayidx9, align 8
  store i32 %17, ptr %i, align 4
  br label %for.cond

for.cond:                                         ; preds = %for.inc44, %if.then
  %18 = load i32, ptr %i, align 4
  %19 = load ptr, ptr %s, align 8
  %text_y10 = getelementptr inbounds %struct.QemuTextConsole, ptr %19, i32 0, i32 11
  %arrayidx11 = getelementptr [2 x i32], ptr %text_y10, i64 0, i64 1
  %20 = load i32, ptr %arrayidx11, align 4
  %cmp12 = icmp sle i32 %18, %20
  br i1 %cmp12, label %for.body, label %for.end46

for.body:                                         ; preds = %for.cond
  store i32 0, ptr %j, align 4
  br label %for.cond13

for.cond13:                                       ; preds = %for.inc, %for.body
  %21 = load i32, ptr %j, align 4
  %22 = load ptr, ptr %s, align 8
  %width14 = getelementptr inbounds %struct.QemuTextConsole, ptr %22, i32 0, i32 1
  %23 = load i32, ptr %width14, align 8
  %cmp15 = icmp slt i32 %21, %23
  br i1 %cmp15, label %for.body16, label %for.end

for.body16:                                       ; preds = %for.cond13
  %24 = load ptr, ptr %chardata.addr, align 8
  %incdec.ptr = getelementptr i32, ptr %24, i32 1
  store ptr %incdec.ptr, ptr %chardata.addr, align 8
  %25 = load ptr, ptr %s, align 8
  %cells = getelementptr inbounds %struct.QemuTextConsole, ptr %25, i32 0, i32 9
  %26 = load ptr, ptr %cells, align 8
  %27 = load i32, ptr %src, align 4
  %idxprom = sext i32 %27 to i64
  %arrayidx17 = getelementptr %struct.TextCell, ptr %26, i64 %idxprom
  %t_attrib = getelementptr inbounds %struct.TextCell, ptr %arrayidx17, i32 0, i32 1
  %bf.load = load i16, ptr %t_attrib, align 1
  %bf.lshr = lshr i16 %bf.load, 8
  %bf.clear = and i16 %bf.lshr, 1
  %bf.cast = trunc i16 %bf.clear to i8
  %conv = zext i8 %bf.cast to i32
  %shl = shl i32 %conv, 21
  %28 = load ptr, ptr %s, align 8
  %cells18 = getelementptr inbounds %struct.QemuTextConsole, ptr %28, i32 0, i32 9
  %29 = load ptr, ptr %cells18, align 8
  %30 = load i32, ptr %src, align 4
  %idxprom19 = sext i32 %30 to i64
  %arrayidx20 = getelementptr %struct.TextCell, ptr %29, i64 %idxprom19
  %t_attrib21 = getelementptr inbounds %struct.TextCell, ptr %arrayidx20, i32 0, i32 1
  %bf.load22 = load i16, ptr %t_attrib21, align 1
  %bf.lshr23 = lshr i16 %bf.load22, 4
  %bf.clear24 = and i16 %bf.lshr23, 15
  %bf.cast25 = trunc i16 %bf.clear24 to i8
  %conv26 = zext i8 %bf.cast25 to i32
  %shl27 = shl i32 %conv26, 11
  %or = or i32 %shl, %shl27
  %31 = load ptr, ptr %s, align 8
  %cells28 = getelementptr inbounds %struct.QemuTextConsole, ptr %31, i32 0, i32 9
  %32 = load ptr, ptr %cells28, align 8
  %33 = load i32, ptr %src, align 4
  %idxprom29 = sext i32 %33 to i64
  %arrayidx30 = getelementptr %struct.TextCell, ptr %32, i64 %idxprom29
  %t_attrib31 = getelementptr inbounds %struct.TextCell, ptr %arrayidx30, i32 0, i32 1
  %bf.load32 = load i16, ptr %t_attrib31, align 1
  %bf.clear33 = and i16 %bf.load32, 15
  %bf.cast34 = trunc i16 %bf.clear33 to i8
  %conv35 = zext i8 %bf.cast34 to i32
  %shl36 = shl i32 %conv35, 8
  %or37 = or i32 %or, %shl36
  %34 = load ptr, ptr %s, align 8
  %cells38 = getelementptr inbounds %struct.QemuTextConsole, ptr %34, i32 0, i32 9
  %35 = load ptr, ptr %cells38, align 8
  %36 = load i32, ptr %src, align 4
  %idxprom39 = sext i32 %36 to i64
  %arrayidx40 = getelementptr %struct.TextCell, ptr %35, i64 %idxprom39
  %ch = getelementptr inbounds %struct.TextCell, ptr %arrayidx40, i32 0, i32 0
  %37 = load i8, ptr %ch, align 1
  %conv41 = zext i8 %37 to i32
  %or42 = or i32 %or37, %conv41
  call void @console_write_ch(ptr noundef %24, i32 noundef %or42)
  br label %for.inc

for.inc:                                          ; preds = %for.body16
  %38 = load i32, ptr %j, align 4
  %inc = add i32 %38, 1
  store i32 %inc, ptr %j, align 4
  %39 = load i32, ptr %src, align 4
  %inc43 = add i32 %39, 1
  store i32 %inc43, ptr %src, align 4
  br label %for.cond13, !llvm.loop !9

for.end:                                          ; preds = %for.cond13
  br label %for.inc44

for.inc44:                                        ; preds = %for.end
  %40 = load i32, ptr %i, align 4
  %inc45 = add i32 %40, 1
  store i32 %inc45, ptr %i, align 4
  br label %for.cond, !llvm.loop !10

for.end46:                                        ; preds = %for.cond
  %41 = load ptr, ptr %s, align 8
  %call47 = call ptr @QEMU_CONSOLE(ptr noundef %41)
  %42 = load ptr, ptr %s, align 8
  %text_x48 = getelementptr inbounds %struct.QemuTextConsole, ptr %42, i32 0, i32 10
  %arrayidx49 = getelementptr [2 x i32], ptr %text_x48, i64 0, i64 0
  %43 = load i32, ptr %arrayidx49, align 8
  %44 = load ptr, ptr %s, align 8
  %text_y50 = getelementptr inbounds %struct.QemuTextConsole, ptr %44, i32 0, i32 11
  %arrayidx51 = getelementptr [2 x i32], ptr %text_y50, i64 0, i64 0
  %45 = load i32, ptr %arrayidx51, align 8
  %46 = load ptr, ptr %s, align 8
  %text_x52 = getelementptr inbounds %struct.QemuTextConsole, ptr %46, i32 0, i32 10
  %arrayidx53 = getelementptr [2 x i32], ptr %text_x52, i64 0, i64 1
  %47 = load i32, ptr %arrayidx53, align 4
  %48 = load ptr, ptr %s, align 8
  %text_x54 = getelementptr inbounds %struct.QemuTextConsole, ptr %48, i32 0, i32 10
  %arrayidx55 = getelementptr [2 x i32], ptr %text_x54, i64 0, i64 0
  %49 = load i32, ptr %arrayidx55, align 8
  %sub = sub i32 %47, %49
  %50 = load i32, ptr %i, align 4
  %51 = load ptr, ptr %s, align 8
  %text_y56 = getelementptr inbounds %struct.QemuTextConsole, ptr %51, i32 0, i32 11
  %arrayidx57 = getelementptr [2 x i32], ptr %text_y56, i64 0, i64 0
  %52 = load i32, ptr %arrayidx57, align 8
  %sub58 = sub i32 %50, %52
  call void @dpy_text_update(ptr noundef %call47, i32 noundef %43, i32 noundef %45, i32 noundef %sub, i32 noundef %sub58)
  %53 = load ptr, ptr %s, align 8
  %width59 = getelementptr inbounds %struct.QemuTextConsole, ptr %53, i32 0, i32 1
  %54 = load i32, ptr %width59, align 8
  %55 = load ptr, ptr %s, align 8
  %text_x60 = getelementptr inbounds %struct.QemuTextConsole, ptr %55, i32 0, i32 10
  %arrayidx61 = getelementptr [2 x i32], ptr %text_x60, i64 0, i64 0
  store i32 %54, ptr %arrayidx61, align 8
  %56 = load ptr, ptr %s, align 8
  %height = getelementptr inbounds %struct.QemuTextConsole, ptr %56, i32 0, i32 2
  %57 = load i32, ptr %height, align 4
  %58 = load ptr, ptr %s, align 8
  %text_y62 = getelementptr inbounds %struct.QemuTextConsole, ptr %58, i32 0, i32 11
  %arrayidx63 = getelementptr [2 x i32], ptr %text_y62, i64 0, i64 0
  store i32 %57, ptr %arrayidx63, align 8
  %59 = load ptr, ptr %s, align 8
  %text_x64 = getelementptr inbounds %struct.QemuTextConsole, ptr %59, i32 0, i32 10
  %arrayidx65 = getelementptr [2 x i32], ptr %text_x64, i64 0, i64 1
  store i32 0, ptr %arrayidx65, align 4
  %60 = load ptr, ptr %s, align 8
  %text_y66 = getelementptr inbounds %struct.QemuTextConsole, ptr %60, i32 0, i32 11
  %arrayidx67 = getelementptr [2 x i32], ptr %text_y66, i64 0, i64 1
  store i32 0, ptr %arrayidx67, align 4
  br label %if.end

if.end:                                           ; preds = %for.end46, %entry
  %61 = load ptr, ptr %s, align 8
  %cursor_invalidate = getelementptr inbounds %struct.QemuTextConsole, ptr %61, i32 0, i32 12
  %62 = load i32, ptr %cursor_invalidate, align 8
  %tobool = icmp ne i32 %62, 0
  br i1 %tobool, label %if.then68, label %if.end71

if.then68:                                        ; preds = %if.end
  %63 = load ptr, ptr %s, align 8
  %call69 = call ptr @QEMU_CONSOLE(ptr noundef %63)
  %64 = load ptr, ptr %s, align 8
  %x = getelementptr inbounds %struct.QemuTextConsole, ptr %64, i32 0, i32 5
  %65 = load i32, ptr %x, align 8
  %66 = load ptr, ptr %s, align 8
  %y = getelementptr inbounds %struct.QemuTextConsole, ptr %66, i32 0, i32 6
  %67 = load i32, ptr %y, align 4
  call void @dpy_text_cursor(ptr noundef %call69, i32 noundef %65, i32 noundef %67)
  %68 = load ptr, ptr %s, align 8
  %cursor_invalidate70 = getelementptr inbounds %struct.QemuTextConsole, ptr %68, i32 0, i32 12
  store i32 0, ptr %cursor_invalidate70, align 8
  br label %if.end71

if.end71:                                         ; preds = %if.then68, %if.end
  ret void
}