; Function Attrs: nounwind sspstrong uwtable
define internal void @text_console_update(ptr noundef %opaque, ptr noundef writeonly captures(none) %chardata) #0 {
entry:
  %call.i = tail call ptr @object_dynamic_cast_assert(ptr noundef %opaque, ptr noundef nonnull @.str.2, ptr noundef nonnull @.str.4, i32 noundef 18, ptr noundef nonnull @__func__.QEMU_TEXT_CONSOLE) #12
  %text_x = getelementptr inbounds nuw i8, ptr %call.i, i64 272
  %0 = load i32, ptr %text_x, align 8
  %arrayidx2 = getelementptr i8, ptr %call.i, i64 276
  %1 = load i32, ptr %arrayidx2, align 4
  %cmp.not = icmp sgt i32 %0, %1
  br i1 %cmp.not, label %if.end, label %if.then

if.then:                                          ; preds = %entry
  %text_y = getelementptr inbounds nuw i8, ptr %call.i, i64 280
  %2 = load i32, ptr %text_y, align 8
  %width = getelementptr inbounds nuw i8, ptr %call.i, i64 232
  %arrayidx11 = getelementptr i8, ptr %call.i, i64 284
  %3 = load i32, ptr %arrayidx11, align 4
  %cmp12.not46 = icmp sgt i32 %2, %3
  br i1 %cmp12.not46, label %for.end46, label %for.cond13.preheader.lr.ph

for.cond13.preheader.lr.ph:                       ; preds = %if.then
  %4 = load i32, ptr %width, align 8
  %cells = getelementptr inbounds nuw i8, ptr %call.i, i64 264
  %5 = icmp sgt i32 %4, 0
  br i1 %5, label %for.cond13.preheader.preheader, label %for.cond13.preheader.lr.ph.split.us

for.cond13.preheader.preheader:                   ; preds = %for.cond13.preheader.lr.ph
  %y_base = getelementptr inbounds nuw i8, ptr %call.i, i64 260
  %6 = load i32, ptr %y_base, align 4
  %add = add i32 %2, %6
  %mul = mul i32 %add, %4
  %mul7 = mul i32 %4, %2
  %idx.ext = sext i32 %mul7 to i64
  %add.ptr = getelementptr i32, ptr %chardata, i64 %idx.ext
  br label %for.cond13.preheader

for.cond13.preheader.lr.ph.split.us:              ; preds = %for.cond13.preheader.lr.ph
  %7 = add i32 %3, 1
  %8 = add i32 %2, 1
  %smax = tail call i32 @llvm.smax.i32(i32 %8, i32 %7)
  br label %for.end46

for.cond13.preheader:                             ; preds = %for.cond13.preheader.preheader, %for.inc44
  %9 = phi i32 [ %21, %for.inc44 ], [ %3, %for.cond13.preheader.preheader ]
  %10 = phi i32 [ %22, %for.inc44 ], [ %4, %for.cond13.preheader.preheader ]
  %src.049 = phi i32 [ %src.1.lcssa, %for.inc44 ], [ %mul, %for.cond13.preheader.preheader ]
  %i.048 = phi i32 [ %inc45, %for.inc44 ], [ %2, %for.cond13.preheader.preheader ]
  %chardata.addr.047 = phi ptr [ %chardata.addr.1.lcssa, %for.inc44 ], [ %add.ptr, %for.cond13.preheader.preheader ]
  %cmp1541 = icmp sgt i32 %10, 0
  br i1 %cmp1541, label %for.body16, label %for.inc44

for.body16:                                       ; preds = %for.cond13.preheader, %for.body16
  %src.144 = phi i32 [ %inc43, %for.body16 ], [ %src.049, %for.cond13.preheader ]
  %j.043 = phi i32 [ %inc, %for.body16 ], [ 0, %for.cond13.preheader ]
  %chardata.addr.142 = phi ptr [ %incdec.ptr, %for.body16 ], [ %chardata.addr.047, %for.cond13.preheader ]
  %incdec.ptr = getelementptr i8, ptr %chardata.addr.142, i64 4
  %11 = load ptr, ptr %cells, align 8
  %idxprom = sext i32 %src.144 to i64
  %arrayidx17 = getelementptr %struct.TextCell, ptr %11, i64 %idxprom
  %t_attrib = getelementptr inbounds nuw i8, ptr %arrayidx17, i64 1
  %bf.load = load i16, ptr %t_attrib, align 1
  %bf.lshr = lshr i16 %bf.load, 8
  %12 = and i16 %bf.lshr, 1
  %bf.cast = zext nneg i16 %12 to i32
  %shl = shl nuw nsw i32 %bf.cast, 21
  %13 = shl i16 %bf.load, 7
  %14 = and i16 %13, 30720
  %shl27 = zext nneg i16 %14 to i32
  %or = or disjoint i32 %shl, %shl27
  %15 = shl i16 %bf.load, 8
  %16 = and i16 %15, 3840
  %17 = load i8, ptr %arrayidx17, align 1
  %18 = zext i8 %17 to i16
  %19 = or disjoint i16 %16, %18
  %or37 = zext nneg i16 %19 to i32
  %or42 = or i32 %or, %or37
  store i32 %or42, ptr %chardata.addr.142, align 4
  %inc = add nuw nsw i32 %j.043, 1
  %inc43 = add i32 %src.144, 1
  %20 = load i32, ptr %width, align 8
  %cmp15 = icmp slt i32 %inc, %20
  br i1 %cmp15, label %for.body16, label %for.inc44.loopexit, !llvm.loop !9

for.inc44.loopexit:                               ; preds = %for.body16
  %.pre = load i32, ptr %arrayidx11, align 4
  br label %for.inc44

for.inc44:                                        ; preds = %for.inc44.loopexit, %for.cond13.preheader
  %21 = phi i32 [ %9, %for.cond13.preheader ], [ %.pre, %for.inc44.loopexit ]
  %22 = phi i32 [ %10, %for.cond13.preheader ], [ %20, %for.inc44.loopexit ]
  %chardata.addr.1.lcssa = phi ptr [ %chardata.addr.047, %for.cond13.preheader ], [ %incdec.ptr, %for.inc44.loopexit ]
  %src.1.lcssa = phi i32 [ %src.049, %for.cond13.preheader ], [ %inc43, %for.inc44.loopexit ]
  %inc45 = add i32 %i.048, 1
  %cmp12.not = icmp sgt i32 %inc45, %21
  br i1 %cmp12.not, label %for.end46, label %for.cond13.preheader, !llvm.loop !10

for.end46:                                        ; preds = %for.inc44, %for.cond13.preheader.lr.ph.split.us, %if.then
  %i.0.lcssa = phi i32 [ %2, %if.then ], [ %smax, %for.cond13.preheader.lr.ph.split.us ], [ %inc45, %for.inc44 ]
  %call.i39 = tail call ptr @object_dynamic_cast_assert(ptr noundef nonnull %call.i, ptr noundef nonnull @.str.3, ptr noundef nonnull @.str.4, i32 noundef 12, ptr noundef nonnull @__func__.QEMU_CONSOLE) #12
  %23 = load i32, ptr %text_x, align 8
  %24 = load i32, ptr %text_y, align 8
  %25 = load i32, ptr %arrayidx2, align 4
  %sub = sub i32 %25, %23
  %sub58 = sub i32 %i.0.lcssa, %24
  tail call void @dpy_text_update(ptr noundef %call.i39, i32 noundef %23, i32 noundef %24, i32 noundef %sub, i32 noundef %sub58) #12
  %26 = load i32, ptr %width, align 8
  store i32 %26, ptr %text_x, align 8
  %height = getelementptr inbounds nuw i8, ptr %call.i, i64 236
  %27 = load i32, ptr %height, align 4
  store i32 %27, ptr %text_y, align 8
  store i32 0, ptr %arrayidx2, align 4
  store i32 0, ptr %arrayidx11, align 4
  br label %if.end

if.end:                                           ; preds = %for.end46, %entry
  %cursor_invalidate = getelementptr inbounds nuw i8, ptr %call.i, i64 288
  %28 = load i32, ptr %cursor_invalidate, align 8
  %tobool.not = icmp eq i32 %28, 0
  br i1 %tobool.not, label %if.end71, label %if.then68

if.then68:                                        ; preds = %if.end
  %call.i40 = tail call ptr @object_dynamic_cast_assert(ptr noundef nonnull %call.i, ptr noundef nonnull @.str.3, ptr noundef nonnull @.str.4, i32 noundef 12, ptr noundef nonnull @__func__.QEMU_CONSOLE) #12
  %x = getelementptr inbounds nuw i8, ptr %call.i, i64 248
  %29 = load i32, ptr %x, align 8
  %y = getelementptr inbounds nuw i8, ptr %call.i, i64 252
  %30 = load i32, ptr %y, align 4
  tail call void @dpy_text_cursor(ptr noundef %call.i40, i32 noundef %29, i32 noundef %30) #12
  store i32 0, ptr %cursor_invalidate, align 8
  br label %if.end71

if.end71:                                         ; preds = %if.then68, %if.end
  ret void
}